; ModuleID = '56/2707.c'
source_filename = "56/2707.c"
target datalayout = "e-m:e-p270:32:32-p271:32:32-p272:64:64-i64:64-f80:128-n8:16:32:64-S128"
target triple = "x86_64-pc-linux-gnu"

@.str = private unnamed_addr constant [3 x i8] c"%c\00", align 1

; Function Attrs: noinline nounwind uwtable
define dso_local void @main() #0 {
  %1 = alloca [10 x i8], align 1
  %2 = alloca i32, align 4
  %3 = alloca i32, align 4
  %4 = bitcast [10 x i8]* %1 to i8*
  call void @llvm.memset.p0i8.i64(i8* align 1 %4, i8 0, i64 10, i1 false)
  %5 = getelementptr inbounds [10 x i8], [10 x i8]* %1, i64 0, i64 0
  %6 = call i32 (i8*, ...) bitcast (i32 (...)* @gets to i32 (i8*, ...)*)(i8* %5)
  store i32 0, i32* %2, align 4
  store i32 0, i32* %3, align 4
  br label %7

7:                                                ; preds = %17, %0
  %8 = load i32, i32* %3, align 4
  %9 = sext i32 %8 to i64
  %10 = getelementptr inbounds [10 x i8], [10 x i8]* %1, i64 0, i64 %9
  %11 = load i8, i8* %10, align 1
  %12 = sext i8 %11 to i32
  %13 = icmp ne i32 %12, 0
  br i1 %13, label %14, label %20

14:                                               ; preds = %7
  %15 = load i32, i32* %2, align 4
  %16 = add nsw i32 %15, 1
  store i32 %16, i32* %2, align 4
  br label %17

17:                                               ; preds = %14
  %18 = load i32, i32* %3, align 4
  %19 = add nsw i32 %18, 1
  store i32 %19, i32* %3, align 4
  br label %7

20:                                               ; preds = %7
  %21 = load i32, i32* %2, align 4
  %22 = sub nsw i32 %21, 1
  store i32 %22, i32* %3, align 4
  br label %23

23:                                               ; preds = %33, %20
  %24 = load i32, i32* %3, align 4
  %25 = icmp sge i32 %24, 0
  br i1 %25, label %26, label %36

26:                                               ; preds = %23
  %27 = load i32, i32* %3, align 4
  %28 = sext i32 %27 to i64
  %29 = getelementptr inbounds [10 x i8], [10 x i8]* %1, i64 0, i64 %28
  %30 = load i8, i8* %29, align 1
  %31 = sext i8 %30 to i32
  %32 = call i32 (i8*, ...) @printf(i8* getelementptr inbounds ([3 x i8], [3 x i8]* @.str, i64 0, i64 0), i32 %31)
  br label %33

33:                                               ; preds = %26
  %34 = load i32, i32* %3, align 4
  %35 = sub nsw i32 %34, 1
  store i32 %35, i32* %3, align 4
  br label %23

36:                                               ; preds = %23
  ret void
}

; Function Attrs: argmemonly nounwind willreturn
declare void @llvm.memset.p0i8.i64(i8* nocapture writeonly, i8, i64, i1 immarg) #1

declare dso_local i32 @gets(...) #2

declare dso_local i32 @printf(i8*, ...) #2


!llvm.module.flags = !{!0}
!llvm.ident = !{!1}

!0 = !{i32 1, !"wchar_size", i32 4}
!1 = !{!"clang version 10.0.0-4ubuntu1 "}
